
Exercise 3.elf:     file format elf32-littlearm

Sections:
Idx Name          Size      VMA       LMA       File off  Algn
  0 .isr_vector   00000194  08000000  08000000  00001000  2**0
                  CONTENTS, ALLOC, LOAD, READONLY, DATA
  1 .text         00000384  08000194  08000194  00001194  2**2
                  CONTENTS, ALLOC, LOAD, READONLY, CODE
  2 .rodata       00000000  08000518  08000518  0000201c  2**0
                  CONTENTS, ALLOC, LOAD, DATA
  3 .ARM.extab    00000000  08000518  08000518  0000201c  2**0
                  CONTENTS, READONLY
  4 .ARM          00000000  08000518  08000518  0000201c  2**0
                  CONTENTS, READONLY
  5 .preinit_array 00000000  08000518  08000518  0000201c  2**0
                  CONTENTS, ALLOC, LOAD, DATA
  6 .init_array   00000004  08000518  08000518  00001518  2**2
                  CONTENTS, ALLOC, LOAD, READONLY, DATA
  7 .fini_array   00000004  0800051c  0800051c  0000151c  2**2
                  CONTENTS, ALLOC, LOAD, READONLY, DATA
  8 .data         0000001c  20000000  08000520  00002000  2**2
                  CONTENTS, ALLOC, LOAD, DATA
  9 .ccmram       00000000  10000000  10000000  0000201c  2**0
                  CONTENTS
 10 .bss          0000009c  2000001c  2000001c  0000201c  2**2
                  ALLOC
 11 ._user_heap_stack 00000600  200000b8  200000b8  0000201c  2**0
                  ALLOC
 12 .ARM.attributes 00000030  00000000  00000000  0000201c  2**0
                  CONTENTS, READONLY
 13 .debug_line   000001bf  00000000  00000000  0000204c  2**0
                  CONTENTS, READONLY, DEBUGGING, OCTETS
 14 .debug_line_str 0000007e  00000000  00000000  0000220b  2**0
                  CONTENTS, READONLY, DEBUGGING, OCTETS
 15 .debug_info   00000055  00000000  00000000  00002289  2**0
                  CONTENTS, READONLY, DEBUGGING, OCTETS
 16 .debug_abbrev 00000038  00000000  00000000  000022de  2**0
                  CONTENTS, READONLY, DEBUGGING, OCTETS
 17 .debug_aranges 00000048  00000000  00000000  00002318  2**3
                  CONTENTS, READONLY, DEBUGGING, OCTETS
 18 .debug_str    0000008f  00000000  00000000  00002360  2**0
                  CONTENTS, READONLY, DEBUGGING, OCTETS
 19 .debug_rnglists 00000019  00000000  00000000  000023ef  2**0
                  CONTENTS, READONLY, DEBUGGING, OCTETS
 20 .debug_frame  0000002c  00000000  00000000  00002408  2**2
                  CONTENTS, READONLY, DEBUGGING, OCTETS

Disassembly of section .text:

08000194 <__do_global_dtors_aux>:
 8000194:	b510      	push	{r4, lr}
 8000196:	4c05      	ldr	r4, [pc, #20]	@ (80001ac <__do_global_dtors_aux+0x18>)
 8000198:	7823      	ldrb	r3, [r4, #0]
 800019a:	b933      	cbnz	r3, 80001aa <__do_global_dtors_aux+0x16>
 800019c:	4b04      	ldr	r3, [pc, #16]	@ (80001b0 <__do_global_dtors_aux+0x1c>)
 800019e:	b113      	cbz	r3, 80001a6 <__do_global_dtors_aux+0x12>
 80001a0:	4804      	ldr	r0, [pc, #16]	@ (80001b4 <__do_global_dtors_aux+0x20>)
 80001a2:	f3af 8000 	nop.w
 80001a6:	2301      	movs	r3, #1
 80001a8:	7023      	strb	r3, [r4, #0]
 80001aa:	bd10      	pop	{r4, pc}
 80001ac:	2000001c 	.word	0x2000001c
 80001b0:	00000000 	.word	0x00000000
 80001b4:	08000500 	.word	0x08000500

080001b8 <frame_dummy>:
 80001b8:	b508      	push	{r3, lr}
 80001ba:	4b03      	ldr	r3, [pc, #12]	@ (80001c8 <frame_dummy+0x10>)
 80001bc:	b11b      	cbz	r3, 80001c6 <frame_dummy+0xe>
 80001be:	4903      	ldr	r1, [pc, #12]	@ (80001cc <frame_dummy+0x14>)
 80001c0:	4803      	ldr	r0, [pc, #12]	@ (80001d0 <frame_dummy+0x18>)
 80001c2:	f3af 8000 	nop.w
 80001c6:	bd08      	pop	{r3, pc}
 80001c8:	00000000 	.word	0x00000000
 80001cc:	20000020 	.word	0x20000020
 80001d0:	08000500 	.word	0x08000500

080001d4 <enable_peripheral_clocks>:
@ ============================================================
@ enable_peripheral_clocks
@ Enable GPIO clocks for ports we may use
@ ============================================================
enable_peripheral_clocks:
    LDR R0, =RCC
 80001d4:	4898      	ldr	r0, [pc, #608]	@ (8000438 <bcc_finish+0x8>)
    LDR R1, [R0, #AHBENR]
 80001d6:	6941      	ldr	r1, [r0, #20]
    ORR R1, R1, #(1 << GPIOE_ENABLE)
 80001d8:	f441 1100 	orr.w	r1, r1, #2097152	@ 0x200000
    ORR R1, R1, #(1 << GPIOD_ENABLE)
 80001dc:	f441 1180 	orr.w	r1, r1, #1048576	@ 0x100000
    ORR R1, R1, #(1 << GPIOC_ENABLE)
 80001e0:	f441 2100 	orr.w	r1, r1, #524288	@ 0x80000
    ORR R1, R1, #(1 << GPIOB_ENABLE)
 80001e4:	f441 2180 	orr.w	r1, r1, #262144	@ 0x40000
    ORR R1, R1, #(1 << GPIOA_ENABLE)
 80001e8:	f441 3100 	orr.w	r1, r1, #131072	@ 0x20000
    STR R1, [R0, #AHBENR]
 80001ec:	6141      	str	r1, [r0, #20]
    BX LR
 80001ee:	4770      	bx	lr

080001f0 <enable_uart>:
@ enable_uart
@ Configure PC4/PC5 for USART1 and enable USART1
@ ============================================================
enable_uart:
    @ Configure GPIO pins for alternate function
    LDR R0, =UART_GPIO
 80001f0:	4892      	ldr	r0, [pc, #584]	@ (800043c <bcc_finish+0xc>)

    @ Set alternate function AF7 on PC4/PC5
    LDR R1, [R0, #AFRREG]
 80001f2:	6a01      	ldr	r1, [r0, #32]
    BIC R1, R1, #AFR_CLEAR_MASK
 80001f4:	f421 017f 	bic.w	r1, r1, #16711680	@ 0xff0000
    ORR R1, R1, #AFR_SET_MASK
 80001f8:	f441 01ee 	orr.w	r1, r1, #7798784	@ 0x770000
    STR R1, [R0, #AFRREG]
 80001fc:	6201      	str	r1, [r0, #32]

    @ Set PC4/PC5 to alternate function mode
    LDR R1, [R0, #GPIO_MODER]
 80001fe:	6801      	ldr	r1, [r0, #0]
    BIC R1, R1, #MODER_CLEAR_MASK
 8000200:	f421 6170 	bic.w	r1, r1, #3840	@ 0xf00
    ORR R1, R1, #MODER_ALT_MASK
 8000204:	f441 6120 	orr.w	r1, r1, #2560	@ 0xa00
    STR R1, [R0, #GPIO_MODER]
 8000208:	6001      	str	r1, [r0, #0]

    @ Set PC4/PC5 high speed
    LDR R1, [R0, #GPIO_OSPEEDR]
 800020a:	6881      	ldr	r1, [r0, #8]
    ORR R1, R1, #OSPEED_SET_MASK
 800020c:	f441 6170 	orr.w	r1, r1, #3840	@ 0xf00
    STR R1, [R0, #GPIO_OSPEEDR]
 8000210:	6081      	str	r1, [r0, #8]

    @ Enable USART1 clock
    LDR R0, =RCC
 8000212:	4889      	ldr	r0, [pc, #548]	@ (8000438 <bcc_finish+0x8>)
    LDR R1, [R0, #APBENR]
 8000214:	6981      	ldr	r1, [r0, #24]
    ORR R1, R1, #(1 << UART_EN)
 8000216:	f441 4180 	orr.w	r1, r1, #16384	@ 0x4000
    STR R1, [R0, #APBENR]
 800021a:	6181      	str	r1, [r0, #24]

    @ Set baud rate
    LDR R0, =UART
 800021c:	4888      	ldr	r0, [pc, #544]	@ (8000440 <bcc_finish+0x10>)
    MOV R1, #BAUD_RATE
 800021e:	f241 3188 	movw	r1, #5000	@ 0x1388
    STRH R1, [R0, #USART_BRR]
 8000222:	8181      	strh	r1, [r0, #12]

    @ Enable transmitter, receiver and USART
    LDR R1, [R0, #USART_CR1]
 8000224:	6801      	ldr	r1, [r0, #0]
    ORR R1, R1, #(1 << UART_TE)
 8000226:	f041 0108 	orr.w	r1, r1, #8
    ORR R1, R1, #(1 << UART_RE)
 800022a:	f041 0104 	orr.w	r1, r1, #4
    ORR R1, R1, #(1 << UART_UE)
 800022e:	f041 0101 	orr.w	r1, r1, #1
    STR R1, [R0, #USART_CR1]
 8000232:	6001      	str	r1, [r0, #0]

    BX LR
 8000234:	4770      	bx	lr

08000236 <change_clock_speed>:
@ change_clock_speed
@ Optional PLL clock setup
@ ============================================================
change_clock_speed:
    @ step 1: enable HSE
    LDR R0, =RCC
 8000236:	4880      	ldr	r0, [pc, #512]	@ (8000438 <bcc_finish+0x8>)
    LDR R1, [R0, #RCC_CR]
 8000238:	6801      	ldr	r1, [r0, #0]
    LDR R2, =(1 << HSEBYP) | (1 << HSEON)
 800023a:	f44f 22a0 	mov.w	r2, #327680	@ 0x50000
    ORR R1, R1, R2
 800023e:	ea41 0102 	orr.w	r1, r1, r2
    STR R1, [R0, #RCC_CR]
 8000242:	6001      	str	r1, [r0, #0]

08000244 <wait_for_HSERDY>:

wait_for_HSERDY:
    LDR R1, [R0, #RCC_CR]
 8000244:	6801      	ldr	r1, [r0, #0]
    TST R1, #(1 << HSERDY)
 8000246:	f411 3f00 	tst.w	r1, #131072	@ 0x20000
    BEQ wait_for_HSERDY
 800024a:	d0fb      	beq.n	8000244 <wait_for_HSERDY>

    @ step 2: configure PLL
    LDR R1, [R0, #RCC_CFGR]
 800024c:	6841      	ldr	r1, [r0, #4]
    LDR R2, =(1 << 20) | (1 << PLLSRC) | (1 << 22)
 800024e:	f44f 02a2 	mov.w	r2, #5308416	@ 0x510000
    ORR R1, R1, R2
 8000252:	ea41 0102 	orr.w	r1, r1, r2
    STR R1, [R0, #RCC_CFGR]
 8000256:	6041      	str	r1, [r0, #4]

    @ enable PLL
    LDR R1, [R0, #RCC_CR]
 8000258:	6801      	ldr	r1, [r0, #0]
    ORR R1, R1, #(1 << PLLON)
 800025a:	f041 7180 	orr.w	r1, r1, #16777216	@ 0x1000000
    STR R1, [R0, #RCC_CR]
 800025e:	6001      	str	r1, [r0, #0]

08000260 <wait_for_PLLRDY>:

wait_for_PLLRDY:
    LDR R1, [R0, #RCC_CR]
 8000260:	6801      	ldr	r1, [r0, #0]
    TST R1, #(1 << PLLRDY)
 8000262:	f011 7f00 	tst.w	r1, #33554432	@ 0x2000000
    BEQ wait_for_PLLRDY
 8000266:	d0fb      	beq.n	8000260 <wait_for_PLLRDY>

    @ switch system clock to PLL
    LDR R1, [R0, #RCC_CFGR]
 8000268:	6841      	ldr	r1, [r0, #4]
    MOV R2, #(1 << 10) | (1 << 1)
 800026a:	f240 4202 	movw	r2, #1026	@ 0x402
    ORR R1, R1, R2
 800026e:	ea41 0102 	orr.w	r1, r1, r2
    STR R1, [R0, #RCC_CFGR]
 8000272:	6041      	str	r1, [r0, #4]

    LDR R1, [R0, #RCC_CFGR]
 8000274:	6841      	ldr	r1, [r0, #4]
    ORR R1, R1, #(1 << USBPRE)
 8000276:	f441 0180 	orr.w	r1, r1, #4194304	@ 0x400000
    STR R1, [R0, #RCC_CFGR]
 800027a:	6041      	str	r1, [r0, #4]

    BX LR
 800027c:	4770      	bx	lr

0800027e <initialise_power>:

@ ============================================================
@ initialise_power
@ ============================================================
initialise_power:
    LDR R0, =RCC
 800027e:	486e      	ldr	r0, [pc, #440]	@ (8000438 <bcc_finish+0x8>)

    @ Enable power interface clock
    LDR R1, [R0, #APB1ENR]
 8000280:	69c1      	ldr	r1, [r0, #28]
    ORR R1, R1, #(1 << PWREN)
 8000282:	f041 5180 	orr.w	r1, r1, #268435456	@ 0x10000000
    STR R1, [R0, #APB1ENR]
 8000286:	61c1      	str	r1, [r0, #28]

    @ Enable system configuration clock
    LDR R1, [R0, #APB2ENR]
 8000288:	6981      	ldr	r1, [r0, #24]
    ORR R1, R1, #(1 << SYSCFGEN)
 800028a:	f041 0101 	orr.w	r1, r1, #1
    STR R1, [R0, #APB2ENR]
 800028e:	6181      	str	r1, [r0, #24]

    BX LR
 8000290:	4770      	bx	lr

08000292 <main>:
rx_string_buffer: .space 64

.text

main:
    BL initialise_power
 8000292:	f7ff fff4 	bl	800027e <initialise_power>
    BL change_clock_speed
 8000296:	f7ff ffce 	bl	8000236 <change_clock_speed>
    BL enable_peripheral_clocks
 800029a:	f7ff ff9b 	bl	80001d4 <enable_peripheral_clocks>
    BL enable_uart
 800029e:	f7ff ffa7 	bl	80001f0 <enable_uart>

080002a2 <main_loop>:

main_loop:
    BL button_press_tx
 80002a2:	f000 f803 	bl	80002ac <button_press_tx>
    BL uart_try_receive_packet
 80002a6:	f000 f828 	bl	80002fa <uart_try_receive_packet>
    B  main_loop
 80002aa:	e7fa      	b.n	80002a2 <main_loop>

080002ac <button_press_tx>:

button_press_tx:
    PUSH {R4, LR}
 80002ac:	b510      	push	{r4, lr}

    LDR R4, =GPIOA
 80002ae:	f04f 4490 	mov.w	r4, #1207959552	@ 0x48000000
    LDR R3, [R4, #GPIO_IDR]
 80002b2:	6923      	ldr	r3, [r4, #16]
    TST R3, #1
 80002b4:	f013 0f01 	tst.w	r3, #1
    BEQ button_not_pressed
 80002b8:	d008      	beq.n	80002cc <button_not_pressed>

    LDR R1, =tx_packet
 80002ba:	4962      	ldr	r1, [pc, #392]	@ (8000444 <bcc_finish+0x14>)
    LDR R2, =tx_packet_len
 80002bc:	4a62      	ldr	r2, [pc, #392]	@ (8000448 <bcc_finish+0x18>)
    LDR R2, [R2]
 80002be:	6812      	ldr	r2, [r2, #0]
    BL uart_tx_buffer
 80002c0:	f000 f807 	bl	80002d2 <uart_tx_buffer>

080002c4 <wait_release>:

wait_release:
    LDR R3, [R4, #GPIO_IDR]
 80002c4:	6923      	ldr	r3, [r4, #16]
    TST R3, #1
 80002c6:	f013 0f01 	tst.w	r3, #1
    BNE wait_release
 80002ca:	d1fb      	bne.n	80002c4 <wait_release>

080002cc <button_not_pressed>:

button_not_pressed:
    POP {R4, LR}
 80002cc:	e8bd 4010 	ldmia.w	sp!, {r4, lr}
    BX LR
 80002d0:	4770      	bx	lr

080002d2 <uart_tx_buffer>:

uart_tx_buffer:
    PUSH {R4-R6, LR}
 80002d2:	b570      	push	{r4, r5, r6, lr}

    LDR R4, =UART
 80002d4:	4c5a      	ldr	r4, [pc, #360]	@ (8000440 <bcc_finish+0x10>)
    MOV R5, R1
 80002d6:	460d      	mov	r5, r1
    MOV R6, R2
 80002d8:	4616      	mov	r6, r2

080002da <tx_loop>:

tx_loop:
    CMP R6, #0
 80002da:	2e00      	cmp	r6, #0
    BEQ tx_done
 80002dc:	d00a      	beq.n	80002f4 <tx_done>

080002de <wait_txe>:

wait_txe:
    LDR R3, [R4, #USART_ISR]
 80002de:	69e3      	ldr	r3, [r4, #28]
    TST R3, #(1 << UART_TXE)
 80002e0:	f013 0f80 	tst.w	r3, #128	@ 0x80
    BEQ wait_txe
 80002e4:	d0fb      	beq.n	80002de <wait_txe>

    LDRB R0, [R5], #1
 80002e6:	f815 0b01 	ldrb.w	r0, [r5], #1
    STRB R0, [R4, #USART_TDR]
 80002ea:	f884 0028 	strb.w	r0, [r4, #40]	@ 0x28

    SUB R6, R6, #1
 80002ee:	f1a6 0601 	sub.w	r6, r6, #1
    B   tx_loop
 80002f2:	e7f2      	b.n	80002da <tx_loop>

080002f4 <tx_done>:

tx_done:
    POP {R4-R6, LR}
 80002f4:	e8bd 4070 	ldmia.w	sp!, {r4, r5, r6, lr}
    BX LR
 80002f8:	4770      	bx	lr

080002fa <uart_try_receive_packet>:

uart_try_receive_packet:
    PUSH {R4-R7, LR}
 80002fa:	b5f0      	push	{r4, r5, r6, r7, lr}

    LDR R4, =UART
 80002fc:	4c50      	ldr	r4, [pc, #320]	@ (8000440 <bcc_finish+0x10>)
    LDR R5, [R4, #USART_ISR]
 80002fe:	69e5      	ldr	r5, [r4, #28]
    TST R5, #(1 << UART_RXNE)
 8000300:	f015 0f20 	tst.w	r5, #32
    BEQ rx_try_done
 8000304:	d010      	beq.n	8000328 <rx_try_done>

    LDR R1, =rx_raw_buffer
 8000306:	4951      	ldr	r1, [pc, #324]	@ (800044c <bcc_finish+0x1c>)
    LDR R2, =rx_string_buffer
 8000308:	4a51      	ldr	r2, [pc, #324]	@ (8000450 <bcc_finish+0x20>)
    BL uart_rx_packet_validate
 800030a:	f000 f810 	bl	800032e <uart_rx_packet_validate>

    CMP R3, #1
 800030e:	2b01      	cmp	r3, #1
    BEQ send_ack_now
 8000310:	d005      	beq.n	800031e <send_ack_now>

08000312 <send_nak_now>:

send_nak_now:
    LDR R1, =nak_packet
 8000312:	4950      	ldr	r1, [pc, #320]	@ (8000454 <bcc_finish+0x24>)
    LDR R2, =nak_packet_len
 8000314:	4a50      	ldr	r2, [pc, #320]	@ (8000458 <bcc_finish+0x28>)
    LDR R2, [R2]
 8000316:	6812      	ldr	r2, [r2, #0]
    BL uart_tx_buffer
 8000318:	f7ff ffdb 	bl	80002d2 <uart_tx_buffer>
    B rx_try_done
 800031c:	e004      	b.n	8000328 <rx_try_done>

0800031e <send_ack_now>:

send_ack_now:
    LDR R1, =ack_packet
 800031e:	494f      	ldr	r1, [pc, #316]	@ (800045c <bcc_finish+0x2c>)
    LDR R2, =ack_packet_len
 8000320:	4a4f      	ldr	r2, [pc, #316]	@ (8000460 <bcc_finish+0x30>)
    LDR R2, [R2]
 8000322:	6812      	ldr	r2, [r2, #0]
    BL uart_tx_buffer
 8000324:	f7ff ffd5 	bl	80002d2 <uart_tx_buffer>

08000328 <rx_try_done>:

rx_try_done:
    POP {R4-R7, LR}
 8000328:	e8bd 40f0 	ldmia.w	sp!, {r4, r5, r6, r7, lr}
    BX LR
 800032c:	4770      	bx	lr

0800032e <uart_rx_packet_validate>:

uart_rx_packet_validate:
    PUSH {R4-R12, LR}
 800032e:	e92d 5ff0 	stmdb	sp!, {r4, r5, r6, r7, r8, r9, sl, fp, ip, lr}

    MOV R8, R1
 8000332:	4688      	mov	r8, r1
    MOV R9, R2
 8000334:	4691      	mov	r9, r2

    BL uart_rx_byte_blocking
 8000336:	f000 f84d 	bl	80003d4 <uart_rx_byte_blocking>
    STRB R0, [R8]
 800033a:	f888 0000 	strb.w	r0, [r8]
    CMP R0, #0x02
 800033e:	2802      	cmp	r0, #2
    BNE rx_invalid
 8000340:	d143      	bne.n	80003ca <rx_invalid>

    BL uart_rx_byte_blocking
 8000342:	f000 f847 	bl	80003d4 <uart_rx_byte_blocking>
    STRB R0, [R8, #1]
 8000346:	f888 0001 	strb.w	r0, [r8, #1]
    MOV R10, R0
 800034a:	4682      	mov	sl, r0

    CMP R10, #5
 800034c:	f1ba 0f05 	cmp.w	sl, #5
    BLT rx_invalid
 8000350:	db3b      	blt.n	80003ca <rx_invalid>

    CMP R10, #64
 8000352:	f1ba 0f40 	cmp.w	sl, #64	@ 0x40
    BGT rx_invalid
 8000356:	dc38      	bgt.n	80003ca <rx_invalid>

    SUB R11, R10, #2
 8000358:	f1aa 0b02 	sub.w	fp, sl, #2
    MOV R12, #2
 800035c:	f04f 0c02 	mov.w	ip, #2

08000360 <rx_read_rest>:

rx_read_rest:
    CMP R11, #0
 8000360:	f1bb 0f00 	cmp.w	fp, #0
    BEQ rx_read_complete
 8000364:	d008      	beq.n	8000378 <rx_read_complete>

    BL uart_rx_byte_blocking
 8000366:	f000 f835 	bl	80003d4 <uart_rx_byte_blocking>
    STRB R0, [R8, R12]
 800036a:	f808 000c 	strb.w	r0, [r8, ip]
    ADD R12, R12, #1
 800036e:	f10c 0c01 	add.w	ip, ip, #1
    SUB R11, R11, #1
 8000372:	f1ab 0b01 	sub.w	fp, fp, #1
    B   rx_read_rest
 8000376:	e7f3      	b.n	8000360 <rx_read_rest>

08000378 <rx_read_complete>:

rx_read_complete:
    SUB R4, R10, #2
 8000378:	f1aa 0402 	sub.w	r4, sl, #2
    LDRB R5, [R8, R4]
 800037c:	f818 5004 	ldrb.w	r5, [r8, r4]
    CMP R5, #0x03
 8000380:	2d03      	cmp	r5, #3
    BNE rx_invalid
 8000382:	d122      	bne.n	80003ca <rx_invalid>

    MOV R1, R8
 8000384:	4641      	mov	r1, r8
    MOV R2, R10
 8000386:	4652      	mov	r2, sl
    BL bcc_verify_zero
 8000388:	f000 f83d 	bl	8000406 <bcc_verify_zero>
    CMP R3, #1
 800038c:	2b01      	cmp	r3, #1
    BNE rx_invalid
 800038e:	d11c      	bne.n	80003ca <rx_invalid>

    MOV R4, #2
 8000390:	f04f 0402 	mov.w	r4, #2
    MOV R5, #0
 8000394:	f04f 0500 	mov.w	r5, #0
    SUB R6, R10, #2
 8000398:	f1aa 0602 	sub.w	r6, sl, #2

    MOV R7, #0
 800039c:	f04f 0700 	mov.w	r7, #0

080003a0 <rx_copy_body>:

rx_copy_body:
    CMP R4, R6
 80003a0:	42b4      	cmp	r4, r6
    BGE rx_copy_done
 80003a2:	da0d      	bge.n	80003c0 <rx_copy_done>

    LDRB R0, [R8, R4]
 80003a4:	f818 0004 	ldrb.w	r0, [r8, r4]
    STRB R0, [R9, R5]
 80003a8:	f809 0005 	strb.w	r0, [r9, r5]

    CMP R0, #0
 80003ac:	2800      	cmp	r0, #0
    BEQ rx_found_nul
 80003ae:	d004      	beq.n	80003ba <rx_found_nul>

    ADD R4, R4, #1
 80003b0:	f104 0401 	add.w	r4, r4, #1
    ADD R5, R5, #1
 80003b4:	f105 0501 	add.w	r5, r5, #1
    B   rx_copy_body
 80003b8:	e7f2      	b.n	80003a0 <rx_copy_body>

080003ba <rx_found_nul>:

rx_found_nul:
    MOV R7, #1
 80003ba:	f04f 0701 	mov.w	r7, #1
    B   rx_copy_done
 80003be:	e7ff      	b.n	80003c0 <rx_copy_done>

080003c0 <rx_copy_done>:

rx_copy_done:
    CMP R7, #1
 80003c0:	2f01      	cmp	r7, #1
    BNE rx_invalid
 80003c2:	d102      	bne.n	80003ca <rx_invalid>

    MOV R3, #1
 80003c4:	f04f 0301 	mov.w	r3, #1
    B   rx_finish
 80003c8:	e001      	b.n	80003ce <rx_finish>

080003ca <rx_invalid>:

rx_invalid:
    MOV R3, #0
 80003ca:	f04f 0300 	mov.w	r3, #0

080003ce <rx_finish>:

rx_finish:
    POP {R4-R12, LR}
 80003ce:	e8bd 5ff0 	ldmia.w	sp!, {r4, r5, r6, r7, r8, r9, sl, fp, ip, lr}
    BX LR
 80003d2:	4770      	bx	lr

080003d4 <uart_rx_byte_blocking>:

uart_rx_byte_blocking:
    PUSH {R4, LR}
 80003d4:	b510      	push	{r4, lr}
    LDR R4, =UART
 80003d6:	4c1a      	ldr	r4, [pc, #104]	@ (8000440 <bcc_finish+0x10>)

080003d8 <rx_wait>:

rx_wait:
    LDR R1, [R4, #USART_ISR]
 80003d8:	69e1      	ldr	r1, [r4, #28]

    TST R1, #(1 << UART_ORE)
 80003da:	f011 0f08 	tst.w	r1, #8
    BNE rx_clear_error
 80003de:	d108      	bne.n	80003f2 <rx_clear_error>
    TST R1, #(1 << UART_FE)
 80003e0:	f011 0f02 	tst.w	r1, #2
    BNE rx_clear_error
 80003e4:	d105      	bne.n	80003f2 <rx_clear_error>

    TST R1, #(1 << UART_RXNE)
 80003e6:	f011 0f20 	tst.w	r1, #32
    BEQ rx_wait
 80003ea:	d0f5      	beq.n	80003d8 <rx_wait>

    LDRB R0, [R4, #USART_RDR]
 80003ec:	f894 0024 	ldrb.w	r0, [r4, #36]	@ 0x24
    B rx_done
 80003f0:	e006      	b.n	8000400 <rx_done>

080003f2 <rx_clear_error>:

rx_clear_error:
    LDR R1, [R4, #USART_ICR]
 80003f2:	6a21      	ldr	r1, [r4, #32]
    ORR R1, R1, #(1 << UART_ORECF)
 80003f4:	f041 0108 	orr.w	r1, r1, #8
    ORR R1, R1, #(1 << UART_FECF)
 80003f8:	f041 0102 	orr.w	r1, r1, #2
    STR R1, [R4, #USART_ICR]
 80003fc:	6221      	str	r1, [r4, #32]
    B rx_wait
 80003fe:	e7eb      	b.n	80003d8 <rx_wait>

08000400 <rx_done>:

rx_done:
    POP {R4, LR}
 8000400:	e8bd 4010 	ldmia.w	sp!, {r4, lr}
    BX LR
 8000404:	4770      	bx	lr

08000406 <bcc_verify_zero>:

bcc_verify_zero:
    PUSH {R4-R6, LR}
 8000406:	b570      	push	{r4, r5, r6, lr}

    MOV R4, R1
 8000408:	460c      	mov	r4, r1
    MOV R5, R2
 800040a:	4615      	mov	r5, r2
    MOV R6, #0
 800040c:	f04f 0600 	mov.w	r6, #0

08000410 <bcc_loop>:

bcc_loop:
    CMP R5, #0
 8000410:	2d00      	cmp	r5, #0
    BEQ bcc_done
 8000412:	d006      	beq.n	8000422 <bcc_done>

    LDRB R0, [R4], #1
 8000414:	f814 0b01 	ldrb.w	r0, [r4], #1
    EOR R6, R6, R0
 8000418:	ea86 0600 	eor.w	r6, r6, r0
    SUB R5, R5, #1
 800041c:	f1a5 0501 	sub.w	r5, r5, #1
    B   bcc_loop
 8000420:	e7f6      	b.n	8000410 <bcc_loop>

08000422 <bcc_done>:

bcc_done:
    CMP R6, #0
 8000422:	2e00      	cmp	r6, #0
    BNE bcc_invalid
 8000424:	d102      	bne.n	800042c <bcc_invalid>
    MOV R3, #1
 8000426:	f04f 0301 	mov.w	r3, #1
    B bcc_finish
 800042a:	e001      	b.n	8000430 <bcc_finish>

0800042c <bcc_invalid>:

bcc_invalid:
    MOV R3, #0
 800042c:	f04f 0300 	mov.w	r3, #0

08000430 <bcc_finish>:

bcc_finish:
    POP {R4-R6, LR}
 8000430:	e8bd 4070 	ldmia.w	sp!, {r4, r5, r6, lr}
    BX LR
 8000434:	4770      	bx	lr
 8000436:	0000      	.short	0x0000
    LDR R0, =RCC
 8000438:	40021000 	.word	0x40021000
    LDR R0, =UART_GPIO
 800043c:	48000800 	.word	0x48000800
    LDR R0, =UART
 8000440:	40013800 	.word	0x40013800
    LDR R1, =tx_packet
 8000444:	20000000 	.word	0x20000000
    LDR R2, =tx_packet_len
 8000448:	20000009 	.word	0x20000009
    LDR R1, =rx_raw_buffer
 800044c:	20000038 	.word	0x20000038
    LDR R2, =rx_string_buffer
 8000450:	20000078 	.word	0x20000078
    LDR R1, =nak_packet
 8000454:	20000014 	.word	0x20000014
    LDR R2, =nak_packet_len
 8000458:	20000017 	.word	0x20000017
    LDR R1, =ack_packet
 800045c:	2000000d 	.word	0x2000000d
    LDR R2, =ack_packet_len
 8000460:	20000010 	.word	0x20000010

08000464 <Reset_Handler>:

  .section .text.Reset_Handler
  .weak Reset_Handler
  .type Reset_Handler, %function
Reset_Handler:
  ldr   r0, =_estack
 8000464:	480d      	ldr	r0, [pc, #52]	@ (800049c <LoopForever+0x2>)
  mov   sp, r0          /* set stack pointer */
 8000466:	4685      	mov	sp, r0
/* Call the clock system initialization function.*/
  bl  SystemInit
 8000468:	f3af 8000 	nop.w

/* Copy the data segment initializers from flash to SRAM */
  ldr r0, =_sdata
 800046c:	480c      	ldr	r0, [pc, #48]	@ (80004a0 <LoopForever+0x6>)
  ldr r1, =_edata
 800046e:	490d      	ldr	r1, [pc, #52]	@ (80004a4 <LoopForever+0xa>)
  ldr r2, =_sidata
 8000470:	4a0d      	ldr	r2, [pc, #52]	@ (80004a8 <LoopForever+0xe>)
  movs r3, #0
 8000472:	2300      	movs	r3, #0
  b LoopCopyDataInit
 8000474:	e002      	b.n	800047c <LoopCopyDataInit>

08000476 <CopyDataInit>:

CopyDataInit:
  ldr r4, [r2, r3]
 8000476:	58d4      	ldr	r4, [r2, r3]
  str r4, [r0, r3]
 8000478:	50c4      	str	r4, [r0, r3]
  adds r3, r3, #4
 800047a:	3304      	adds	r3, #4

0800047c <LoopCopyDataInit>:

LoopCopyDataInit:
  adds r4, r0, r3
 800047c:	18c4      	adds	r4, r0, r3
  cmp r4, r1
 800047e:	428c      	cmp	r4, r1
  bcc CopyDataInit
 8000480:	d3f9      	bcc.n	8000476 <CopyDataInit>

/* Zero fill the bss segment. */
  ldr r2, =_sbss
 8000482:	4a0a      	ldr	r2, [pc, #40]	@ (80004ac <LoopForever+0x12>)
  ldr r4, =_ebss
 8000484:	4c0a      	ldr	r4, [pc, #40]	@ (80004b0 <LoopForever+0x16>)
  movs r3, #0
 8000486:	2300      	movs	r3, #0
  b LoopFillZerobss
 8000488:	e001      	b.n	800048e <LoopFillZerobss>

0800048a <FillZerobss>:

FillZerobss:
  str  r3, [r2]
 800048a:	6013      	str	r3, [r2, #0]
  adds r2, r2, #4
 800048c:	3204      	adds	r2, #4

0800048e <LoopFillZerobss>:

LoopFillZerobss:
  cmp r2, r4
 800048e:	42a2      	cmp	r2, r4
  bcc FillZerobss
 8000490:	d3fb      	bcc.n	800048a <FillZerobss>


/* Call static constructors */
  bl __libc_init_array
 8000492:	f000 f811 	bl	80004b8 <__libc_init_array>
/* Call the application's entry point.*/

  bl main
 8000496:	f7ff fefc 	bl	8000292 <main>

0800049a <LoopForever>:

LoopForever:
  b LoopForever
 800049a:	e7fe      	b.n	800049a <LoopForever>
  ldr   r0, =_estack
 800049c:	2000a000 	.word	0x2000a000
  ldr r0, =_sdata
 80004a0:	20000000 	.word	0x20000000
  ldr r1, =_edata
 80004a4:	2000001c 	.word	0x2000001c
  ldr r2, =_sidata
 80004a8:	08000520 	.word	0x08000520
  ldr r2, =_sbss
 80004ac:	2000001c 	.word	0x2000001c
  ldr r4, =_ebss
 80004b0:	200000b8 	.word	0x200000b8

080004b4 <ADC1_2_IRQHandler>:
 * @retval : None
*/
  .section .text.Default_Handler,"ax",%progbits
Default_Handler:
Infinite_Loop:
  b Infinite_Loop
 80004b4:	e7fe      	b.n	80004b4 <ADC1_2_IRQHandler>
	...

080004b8 <__libc_init_array>:
 80004b8:	b570      	push	{r4, r5, r6, lr}
 80004ba:	4d0d      	ldr	r5, [pc, #52]	@ (80004f0 <__libc_init_array+0x38>)
 80004bc:	4c0d      	ldr	r4, [pc, #52]	@ (80004f4 <__libc_init_array+0x3c>)
 80004be:	1b64      	subs	r4, r4, r5
 80004c0:	10a4      	asrs	r4, r4, #2
 80004c2:	2600      	movs	r6, #0
 80004c4:	42a6      	cmp	r6, r4
 80004c6:	d109      	bne.n	80004dc <__libc_init_array+0x24>
 80004c8:	4d0b      	ldr	r5, [pc, #44]	@ (80004f8 <__libc_init_array+0x40>)
 80004ca:	4c0c      	ldr	r4, [pc, #48]	@ (80004fc <__libc_init_array+0x44>)
 80004cc:	f000 f818 	bl	8000500 <_init>
 80004d0:	1b64      	subs	r4, r4, r5
 80004d2:	10a4      	asrs	r4, r4, #2
 80004d4:	2600      	movs	r6, #0
 80004d6:	42a6      	cmp	r6, r4
 80004d8:	d105      	bne.n	80004e6 <__libc_init_array+0x2e>
 80004da:	bd70      	pop	{r4, r5, r6, pc}
 80004dc:	f855 3b04 	ldr.w	r3, [r5], #4
 80004e0:	4798      	blx	r3
 80004e2:	3601      	adds	r6, #1
 80004e4:	e7ee      	b.n	80004c4 <__libc_init_array+0xc>
 80004e6:	f855 3b04 	ldr.w	r3, [r5], #4
 80004ea:	4798      	blx	r3
 80004ec:	3601      	adds	r6, #1
 80004ee:	e7f2      	b.n	80004d6 <__libc_init_array+0x1e>
 80004f0:	08000518 	.word	0x08000518
 80004f4:	08000518 	.word	0x08000518
 80004f8:	08000518 	.word	0x08000518
 80004fc:	0800051c 	.word	0x0800051c

08000500 <_init>:
 8000500:	b5f8      	push	{r3, r4, r5, r6, r7, lr}
 8000502:	bf00      	nop
 8000504:	bcf8      	pop	{r3, r4, r5, r6, r7}
 8000506:	bc08      	pop	{r3}
 8000508:	469e      	mov	lr, r3
 800050a:	4770      	bx	lr

0800050c <_fini>:
 800050c:	b5f8      	push	{r3, r4, r5, r6, r7, lr}
 800050e:	bf00      	nop
 8000510:	bcf8      	pop	{r3, r4, r5, r6, r7}
 8000512:	bc08      	pop	{r3}
 8000514:	469e      	mov	lr, r3
 8000516:	4770      	bx	lr
